target datalayout = "e-m:e-p270:32:32-p271:32:32-p272:64:64-i64:64-i128:128-f80:128-n8:16:32:64-S128"
target triple = "x86_64-pc-linux-gnu"

%struct.Float4X4 = type { %union.anon }
%union.anon = type { %struct.anon }
%struct.anon = type { float, float, float, float, float, float, float, float, float, float, float, float, float, float, float, float }

; Function Attrs: nounwind uwtable
define hidden void @MatrixRotationY(ptr dead_on_unwind noalias writable sret(%struct.Float4X4) align 4 %0, float noundef %1) #0 {
  %3 = alloca float, align 4
  %4 = alloca float, align 4
  %5 = alloca float, align 4
  store float %1, ptr %3, align 4
  call void @llvm.lifetime.start.p0(i64 4, ptr %4) #5
  %6 = load float, ptr %3, align 4
  %7 = call float @SDL_sinf_REAL(float noundef %6)
  store float %7, ptr %4, align 4
  call void @llvm.lifetime.start.p0(i64 4, ptr %5) #5
  %8 = load float, ptr %3, align 4
  %9 = call float @SDL_cosf_REAL(float noundef %8)
  store float %9, ptr %5, align 4
  call void @llvm.memset.p0.i64(ptr align 4 %0, i8 0, i64 64, i1 false)
  %10 = load float, ptr %5, align 4
  %11 = getelementptr inbounds nuw %struct.Float4X4, ptr %0, i32 0, i32 0
  %12 = getelementptr inbounds nuw %struct.anon, ptr %11, i32 0, i32 0
  store float %10, ptr %12, align 4
  %13 = load float, ptr %4, align 4
  %14 = fneg float %13
  %15 = getelementptr inbounds nuw %struct.Float4X4, ptr %0, i32 0, i32 0
  %16 = getelementptr inbounds nuw %struct.anon, ptr %15, i32 0, i32 2
  store float %14, ptr %16, align 4
  %17 = getelementptr inbounds nuw %struct.Float4X4, ptr %0, i32 0, i32 0
  %18 = getelementptr inbounds nuw %struct.anon, ptr %17, i32 0, i32 5
  store float 1.000000e+00, ptr %18, align 4
  %19 = load float, ptr %4, align 4
  %20 = getelementptr inbounds nuw %struct.Float4X4, ptr %0, i32 0, i32 0
  %21 = getelementptr inbounds nuw %struct.anon, ptr %20, i32 0, i32 8
  store float %19, ptr %21, align 4
  %22 = load float, ptr %5, align 4
  %23 = getelementptr inbounds nuw %struct.Float4X4, ptr %0, i32 0, i32 0
  %24 = getelementptr inbounds nuw %struct.anon, ptr %23, i32 0, i32 10
  store float %22, ptr %24, align 4
  %25 = getelementptr inbounds nuw %struct.Float4X4, ptr %0, i32 0, i32 0
  %26 = getelementptr inbounds nuw %struct.anon, ptr %25, i32 0, i32 15
  store float 1.000000e+00, ptr %26, align 4
  call void @llvm.lifetime.end.p0(i64 4, ptr %5) #5
  call void @llvm.lifetime.end.p0(i64 4, ptr %4) #5
  ret void
}