; Function Attrs: nounwind uwtable
define hidden void @MatrixRotationY(ptr dead_on_unwind noalias writable writeonly sret(%struct.Float4X4) align 4 captures(none) initializes((0, 64)) %0, float noundef %1) local_unnamed_addr #4 {
  %3 = tail call float @SDL_sinf_REAL(float noundef %1) #6
  %4 = tail call float @SDL_cosf_REAL(float noundef %1) #6
  %5 = getelementptr inbounds nuw i8, ptr %0, i64 4
  tail call void @llvm.memset.p0.i64(ptr noundef nonnull align 4 dereferenceable(56) %5, i8 0, i64 56, i1 false)
  store float %4, ptr %0, align 4
  %6 = fneg float %3
  %7 = getelementptr inbounds nuw i8, ptr %0, i64 8
  store float %6, ptr %7, align 4
  %8 = getelementptr inbounds nuw i8, ptr %0, i64 20
  store float 1.000000e+00, ptr %8, align 4
  %9 = getelementptr inbounds nuw i8, ptr %0, i64 32
  store float %3, ptr %9, align 4
  %10 = getelementptr inbounds nuw i8, ptr %0, i64 40
  store float %4, ptr %10, align 4
  %11 = getelementptr inbounds nuw i8, ptr %0, i64 60
  store float 1.000000e+00, ptr %11, align 4
  ret void
}